target datalayout = "e-m:e-p270:32:32-p271:32:32-p272:64:64-i64:64-i128:128-f80:128-n8:16:32:64-S128"
target triple = "x86_64-pc-linux-gnu"

%"class.i18n::phonenumbers::PhoneNumberUtil" = type { %"class.i18n::phonenumbers::Singleton", %"class.boost::scoped_ptr", %"class.boost::scoped_ptr.1", %"class.boost::scoped_ptr.2", %"class.boost::scoped_ptr.3", %"class.boost::scoped_ptr.4", %"class.boost::scoped_ptr.5", %"class.boost::scoped_ptr.6" }
%"class.i18n::phonenumbers::Singleton" = type { ptr }
%"class.boost::scoped_ptr" = type { ptr }
%"class.boost::scoped_ptr.1" = type { ptr }
%"class.boost::scoped_ptr.2" = type { ptr }
%"class.boost::scoped_ptr.3" = type { ptr }
%"class.boost::scoped_ptr.4" = type { ptr }
%"class.boost::scoped_ptr.5" = type { ptr }
%"class.boost::scoped_ptr.6" = type { ptr }
%"class.google::protobuf::MessageLite" = type { ptr, %"class.google::protobuf::internal::InternalMetadata" }
%"class.google::protobuf::internal::InternalMetadata" = type { ptr }
%"class.google::protobuf::internal::CachedSize" = type { %"struct.std::atomic.47" }
%"struct.std::atomic.47" = type { %"struct.std::__atomic_base.48" }
%"struct.std::__atomic_base.48" = type { i32 }
%"class.google::protobuf::internal::HasBits" = type { [1 x i32] }
%"struct.google::protobuf::internal::ArenaStringPtr" = type { ptr }
%"class.i18n::phonenumbers::PhoneNumberDesc" = type { %"class.google::protobuf::MessageLite", %"class.google::protobuf::internal::HasBits", %"class.google::protobuf::internal::CachedSize", %"class.google::protobuf::RepeatedField", %"class.google::protobuf::RepeatedField", %"struct.google::protobuf::internal::ArenaStringPtr", %"struct.google::protobuf::internal::ArenaStringPtr" }
%"class.google::protobuf::RepeatedField" = type { i32, i32, ptr }
%"struct.__gnu_cxx::__ops::_Iter_equals_val" = type { ptr }

; Function Attrs: mustprogress nounwind uwtable
define linkonce_odr dso_local noundef zeroext i1 @_ZN9__gnu_cxx5__ops16_Iter_equals_valIKiEclIPS2_EEbT_(ptr noundef nonnull align 8 dereferenceable(8) %0, ptr noundef %1) #5 comdat align 2 {
  %3 = alloca ptr, align 8
  %4 = alloca ptr, align 8
  store ptr %0, ptr %3, align 8
  store ptr %1, ptr %4, align 8
  %5 = load ptr, ptr %3, align 8
  %6 = load ptr, ptr %4, align 8
  %7 = load i32, ptr %6, align 4
  %8 = getelementptr inbounds %"struct.__gnu_cxx::__ops::_Iter_equals_val", ptr %5, i32 0, i32 0
  %9 = load ptr, ptr %8, align 8
  %10 = load i32, ptr %9, align 4
  %11 = icmp eq i32 %7, %10
  ret i1 %11
}

; Function Attrs: mustprogress uwtable
define linkonce_odr dso_local noundef ptr @_ZSt9__find_ifIPKiN9__gnu_cxx5__ops16_Iter_equals_valIS0_EEET_S6_S6_T0_St26random_access_iterator_tag(ptr noundef %0, ptr noundef %1, ptr %2) #4 comdat {
  %4 = alloca ptr, align 8
  %5 = alloca %"struct.__gnu_cxx::__ops::_Iter_equals_val", align 8
  %6 = alloca ptr, align 8
  %7 = alloca ptr, align 8
  %8 = alloca i64, align 8
  %9 = getelementptr inbounds %"struct.__gnu_cxx::__ops::_Iter_equals_val", ptr %5, i32 0, i32 0
  store ptr %2, ptr %9, align 8
  store ptr %0, ptr %6, align 8
  store ptr %1, ptr %7, align 8
  %10 = load ptr, ptr %7, align 8
  %11 = load ptr, ptr %6, align 8
  %12 = ptrtoint ptr %10 to i64
  %13 = ptrtoint ptr %11 to i64
  %14 = sub i64 %12, %13
  %15 = sdiv exact i64 %14, 4
  %16 = ashr i64 %15, 2
  store i64 %16, ptr %8, align 8
  br label %17

17:                                               ; preds = %49, %3
  %18 = load i64, ptr %8, align 8
  %19 = icmp sgt i64 %18, 0
  br i1 %19, label %20, label %52

20:                                               ; preds = %17
  %21 = load ptr, ptr %6, align 8
  %22 = call noundef zeroext i1 @_ZN9__gnu_cxx5__ops16_Iter_equals_valIKiEclIPS2_EEbT_(ptr noundef nonnull align 8 dereferenceable(8) %5, ptr noundef %21)
  br i1 %22, label %23, label %25

23:                                               ; preds = %20
  %24 = load ptr, ptr %6, align 8
  store ptr %24, ptr %4, align 8
  br label %86

25:                                               ; preds = %20
  %26 = load ptr, ptr %6, align 8
  %27 = getelementptr inbounds i32, ptr %26, i32 1
  store ptr %27, ptr %6, align 8
  %28 = load ptr, ptr %6, align 8
  %29 = call noundef zeroext i1 @_ZN9__gnu_cxx5__ops16_Iter_equals_valIKiEclIPS2_EEbT_(ptr noundef nonnull align 8 dereferenceable(8) %5, ptr noundef %28)
  br i1 %29, label %30, label %32

30:                                               ; preds = %25
  %31 = load ptr, ptr %6, align 8
  store ptr %31, ptr %4, align 8
  br label %86

32:                                               ; preds = %25
  %33 = load ptr, ptr %6, align 8
  %34 = getelementptr inbounds i32, ptr %33, i32 1
  store ptr %34, ptr %6, align 8
  %35 = load ptr, ptr %6, align 8
  %36 = call noundef zeroext i1 @_ZN9__gnu_cxx5__ops16_Iter_equals_valIKiEclIPS2_EEbT_(ptr noundef nonnull align 8 dereferenceable(8) %5, ptr noundef %35)
  br i1 %36, label %37, label %39

37:                                               ; preds = %32
  %38 = load ptr, ptr %6, align 8
  store ptr %38, ptr %4, align 8
  br label %86

39:                                               ; preds = %32
  %40 = load ptr, ptr %6, align 8
  %41 = getelementptr inbounds i32, ptr %40, i32 1
  store ptr %41, ptr %6, align 8
  %42 = load ptr, ptr %6, align 8
  %43 = call noundef zeroext i1 @_ZN9__gnu_cxx5__ops16_Iter_equals_valIKiEclIPS2_EEbT_(ptr noundef nonnull align 8 dereferenceable(8) %5, ptr noundef %42)
  br i1 %43, label %44, label %46

44:                                               ; preds = %39
  %45 = load ptr, ptr %6, align 8
  store ptr %45, ptr %4, align 8
  br label %86

46:                                               ; preds = %39
  %47 = load ptr, ptr %6, align 8
  %48 = getelementptr inbounds i32, ptr %47, i32 1
  store ptr %48, ptr %6, align 8
  br label %49

49:                                               ; preds = %46
  %50 = load i64, ptr %8, align 8
  %51 = add nsw i64 %50, -1
  store i64 %51, ptr %8, align 8
  br label %17, !llvm.loop !105

52:                                               ; preds = %17
  %53 = load ptr, ptr %7, align 8
  %54 = load ptr, ptr %6, align 8
  %55 = ptrtoint ptr %53 to i64
  %56 = ptrtoint ptr %54 to i64
  %57 = sub i64 %55, %56
  %58 = sdiv exact i64 %57, 4
  switch i64 %58, label %84 [
    i64 3, label %59
    i64 2, label %67
    i64 1, label %75
    i64 0, label %83
  ]

59:                                               ; preds = %52
  %60 = load ptr, ptr %6, align 8
  %61 = call noundef zeroext i1 @_ZN9__gnu_cxx5__ops16_Iter_equals_valIKiEclIPS2_EEbT_(ptr noundef nonnull align 8 dereferenceable(8) %5, ptr noundef %60)
  br i1 %61, label %62, label %64

62:                                               ; preds = %59
  %63 = load ptr, ptr %6, align 8
  store ptr %63, ptr %4, align 8
  br label %86

64:                                               ; preds = %59
  %65 = load ptr, ptr %6, align 8
  %66 = getelementptr inbounds i32, ptr %65, i32 1
  store ptr %66, ptr %6, align 8
  br label %67

67:                                               ; preds = %64, %52
  %68 = load ptr, ptr %6, align 8
  %69 = call noundef zeroext i1 @_ZN9__gnu_cxx5__ops16_Iter_equals_valIKiEclIPS2_EEbT_(ptr noundef nonnull align 8 dereferenceable(8) %5, ptr noundef %68)
  br i1 %69, label %70, label %72

70:                                               ; preds = %67
  %71 = load ptr, ptr %6, align 8
  store ptr %71, ptr %4, align 8
  br label %86

72:                                               ; preds = %67
  %73 = load ptr, ptr %6, align 8
  %74 = getelementptr inbounds i32, ptr %73, i32 1
  store ptr %74, ptr %6, align 8
  br label %75

75:                                               ; preds = %72, %52
  %76 = load ptr, ptr %6, align 8
  %77 = call noundef zeroext i1 @_ZN9__gnu_cxx5__ops16_Iter_equals_valIKiEclIPS2_EEbT_(ptr noundef nonnull align 8 dereferenceable(8) %5, ptr noundef %76)
  br i1 %77, label %78, label %80

78:                                               ; preds = %75
  %79 = load ptr, ptr %6, align 8
  store ptr %79, ptr %4, align 8
  br label %86

80:                                               ; preds = %75
  %81 = load ptr, ptr %6, align 8
  %82 = getelementptr inbounds i32, ptr %81, i32 1
  store ptr %82, ptr %6, align 8
  br label %83

83:                                               ; preds = %80, %52
  br label %84

84:                                               ; preds = %83, %52
  %85 = load ptr, ptr %7, align 8
  store ptr %85, ptr %4, align 8
  br label %86

86:                                               ; preds = %84, %78, %70, %62, %44, %37, %30, %23
  %87 = load ptr, ptr %4, align 8
  ret ptr %87
}

; Function Attrs: mustprogress nounwind uwtable
define linkonce_odr dso_local void @_ZSt19__iterator_categoryIPKiENSt15iterator_traitsIT_E17iterator_categoryERKS3_(ptr noundef nonnull align 8 dereferenceable(8) %0) #5 comdat {
  %2 = alloca ptr, align 8
  store ptr %0, ptr %2, align 8
  ret void
}

; Function Attrs: mustprogress nounwind uwtable
define linkonce_odr dso_local void @_ZN9__gnu_cxx5__ops16_Iter_equals_valIKiEC2ERS2_(ptr noundef nonnull align 8 dereferenceable(8) %0, ptr noundef nonnull align 4 dereferenceable(4) %1) unnamed_addr #5 comdat align 2 {
  %3 = alloca ptr, align 8
  %4 = alloca ptr, align 8
  store ptr %0, ptr %3, align 8
  store ptr %1, ptr %4, align 8
  %5 = load ptr, ptr %3, align 8
  %6 = getelementptr inbounds %"struct.__gnu_cxx::__ops::_Iter_equals_val", ptr %5, i32 0, i32 0
  %7 = load ptr, ptr %4, align 8
  store ptr %7, ptr %6, align 8
  ret void
}

; Function Attrs: mustprogress uwtable
define linkonce_odr dso_local noundef ptr @_ZSt9__find_ifIPKiN9__gnu_cxx5__ops16_Iter_equals_valIS0_EEET_S6_S6_T0_(ptr noundef %0, ptr noundef %1, ptr %2) #4 comdat {
  %4 = alloca %"struct.__gnu_cxx::__ops::_Iter_equals_val", align 8
  %5 = alloca ptr, align 8
  %6 = alloca ptr, align 8
  %7 = alloca %"struct.__gnu_cxx::__ops::_Iter_equals_val", align 8
  %8 = getelementptr inbounds %"struct.__gnu_cxx::__ops::_Iter_equals_val", ptr %4, i32 0, i32 0
  store ptr %2, ptr %8, align 8
  store ptr %0, ptr %5, align 8
  store ptr %1, ptr %6, align 8
  %9 = load ptr, ptr %5, align 8
  %10 = load ptr, ptr %6, align 8
  call void @llvm.memcpy.p0.p0.i64(ptr align 8 %7, ptr align 8 %4, i64 8, i1 false)
  call void @_ZSt19__iterator_categoryIPKiENSt15iterator_traitsIT_E17iterator_categoryERKS3_(ptr noundef nonnull align 8 dereferenceable(8) %5)
  %11 = getelementptr inbounds %"struct.__gnu_cxx::__ops::_Iter_equals_val", ptr %7, i32 0, i32 0
  %12 = load ptr, ptr %11, align 8
  %13 = call noundef ptr @_ZSt9__find_ifIPKiN9__gnu_cxx5__ops16_Iter_equals_valIS0_EEET_S6_S6_T0_St26random_access_iterator_tag(ptr noundef %9, ptr noundef %10, ptr %12)
  ret ptr %13
}

; Function Attrs: mustprogress uwtable
define linkonce_odr dso_local ptr @_ZN9__gnu_cxx5__ops17__iter_equals_valIKiEENS0_16_Iter_equals_valIT_EERS4_(ptr noundef nonnull align 4 dereferenceable(4) %0) #4 comdat {
  %2 = alloca %"struct.__gnu_cxx::__ops::_Iter_equals_val", align 8
  %3 = alloca ptr, align 8
  store ptr %0, ptr %3, align 8
  %4 = load ptr, ptr %3, align 8
  call void @_ZN9__gnu_cxx5__ops16_Iter_equals_valIKiEC2ERS2_(ptr noundef nonnull align 8 dereferenceable(8) %2, ptr noundef nonnull align 4 dereferenceable(4) %4)
  %5 = getelementptr inbounds %"struct.__gnu_cxx::__ops::_Iter_equals_val", ptr %2, i32 0, i32 0
  %6 = load ptr, ptr %5, align 8
  ret ptr %6
}

; Function Attrs: mustprogress nounwind uwtable
define linkonce_odr dso_local noundef nonnull align 8 dereferenceable(16) ptr @_ZNK4i18n12phonenumbers15PhoneNumberDesc25_internal_possible_lengthEv(ptr noundef nonnull align 8 dereferenceable(72) %0) #5 comdat align 2 {
  %2 = alloca ptr, align 8
  store ptr %0, ptr %2, align 8
  %3 = load ptr, ptr %2, align 8
  %4 = getelementptr inbounds %"class.i18n::phonenumbers::PhoneNumberDesc", ptr %3, i32 0, i32 3
  ret ptr %4
}

; Function Attrs: mustprogress uwtable
define linkonce_odr dso_local noundef i32 @_ZNK4i18n12phonenumbers15PhoneNumberDesc30_internal_possible_length_sizeEv(ptr noundef nonnull align 8 dereferenceable(72) %0) #4 comdat align 2 {
  %2 = alloca ptr, align 8
  store ptr %0, ptr %2, align 8
  %3 = load ptr, ptr %2, align 8
  %4 = getelementptr inbounds %"class.i18n::phonenumbers::PhoneNumberDesc", ptr %3, i32 0, i32 3
  %5 = call noundef i32 @_ZNK6google8protobuf13RepeatedFieldIiE4sizeEv(ptr noundef nonnull align 8 dereferenceable(16) %4)
  ret i32 %5
}

; Function Attrs: mustprogress uwtable
define internal noundef zeroext i1 @_ZN4i18n12phonenumbers12_GLOBAL__N_17IsMatchERKNS0_10MatcherApiERKNSt7__cxx1112basic_stringIcSt11char_traitsIcESaIcEEERKNS0_15PhoneNumberDescE(ptr noundef nonnull align 8 dereferenceable(8) %0, ptr noundef nonnull align 8 dereferenceable(32) %1, ptr noundef nonnull align 8 dereferenceable(72) %2) #4 {
  %4 = alloca ptr, align 8
  %5 = alloca ptr, align 8
  %6 = alloca ptr, align 8
  store ptr %0, ptr %4, align 8
  store ptr %1, ptr %5, align 8
  store ptr %2, ptr %6, align 8
  %7 = load ptr, ptr %4, align 8
  %8 = load ptr, ptr %5, align 8
  %9 = load ptr, ptr %6, align 8
  %10 = load ptr, ptr %7, align 8
  %11 = getelementptr inbounds ptr, ptr %10, i64 2
  %12 = load ptr, ptr %11, align 8
  %13 = call noundef zeroext i1 %12(ptr noundef nonnull align 8 dereferenceable(8) %7, ptr noundef nonnull align 8 dereferenceable(32) %8, ptr noundef nonnull align 8 dereferenceable(72) %9, i1 noundef zeroext false)
  ret i1 %13
}

; Function Attrs: mustprogress nounwind uwtable
define linkonce_odr dso_local noundef nonnull align 8 dereferenceable(8) ptr @_ZNK5boost10scoped_ptrIN4i18n12phonenumbers10MatcherApiEEdeEv(ptr noundef nonnull align 8 dereferenceable(8) %0) #5 comdat align 2 {
  %2 = alloca ptr, align 8
  store ptr %0, ptr %2, align 8
  %3 = load ptr, ptr %2, align 8
  %4 = getelementptr inbounds %"class.boost::scoped_ptr.1", ptr %3, i32 0, i32 0
  %5 = load ptr, ptr %4, align 8
  ret ptr %5
}

; Function Attrs: mustprogress uwtable
define linkonce_odr dso_local noundef ptr @_ZSt4findIPKiiET_S2_S2_RKT0_(ptr noundef %0, ptr noundef %1, ptr noundef nonnull align 4 dereferenceable(4) %2) #4 comdat {
  %4 = alloca ptr, align 8
  %5 = alloca ptr, align 8
  %6 = alloca ptr, align 8
  %7 = alloca %"struct.__gnu_cxx::__ops::_Iter_equals_val", align 8
  store ptr %0, ptr %4, align 8
  store ptr %1, ptr %5, align 8
  store ptr %2, ptr %6, align 8
  %8 = load ptr, ptr %4, align 8
  %9 = load ptr, ptr %5, align 8
  %10 = load ptr, ptr %6, align 8
  %11 = call ptr @_ZN9__gnu_cxx5__ops17__iter_equals_valIKiEENS0_16_Iter_equals_valIT_EERS4_(ptr noundef nonnull align 4 dereferenceable(4) %10)
  %12 = getelementptr inbounds %"struct.__gnu_cxx::__ops::_Iter_equals_val", ptr %7, i32 0, i32 0
  store ptr %11, ptr %12, align 8
  %13 = getelementptr inbounds %"struct.__gnu_cxx::__ops::_Iter_equals_val", ptr %7, i32 0, i32 0
  %14 = load ptr, ptr %13, align 8
  %15 = call noundef ptr @_ZSt9__find_ifIPKiN9__gnu_cxx5__ops16_Iter_equals_valIS0_EEET_S6_S6_T0_(ptr noundef %8, ptr noundef %9, ptr %14)
  ret ptr %15
}

; Function Attrs: mustprogress uwtable
define linkonce_odr dso_local noundef nonnull align 8 dereferenceable(16) ptr @_ZNK4i18n12phonenumbers15PhoneNumberDesc15possible_lengthEv(ptr noundef nonnull align 8 dereferenceable(72) %0) #4 comdat align 2 {
  %2 = alloca ptr, align 8
  store ptr %0, ptr %2, align 8
  %3 = load ptr, ptr %2, align 8
  %4 = call noundef nonnull align 8 dereferenceable(16) ptr @_ZNK4i18n12phonenumbers15PhoneNumberDesc25_internal_possible_lengthEv(ptr noundef nonnull align 8 dereferenceable(72) %3)
  ret ptr %4
}

; Function Attrs: mustprogress uwtable
define linkonce_odr dso_local noundef i32 @_ZNK4i18n12phonenumbers15PhoneNumberDesc20possible_length_sizeEv(ptr noundef nonnull align 8 dereferenceable(72) %0) #4 comdat align 2 {
  %2 = alloca ptr, align 8
  store ptr %0, ptr %2, align 8
  %3 = load ptr, ptr %2, align 8
  %4 = call noundef i32 @_ZNK4i18n12phonenumbers15PhoneNumberDesc30_internal_possible_length_sizeEv(ptr noundef nonnull align 8 dereferenceable(72) %3)
  ret i32 %4
}

; Function Attrs: mustprogress uwtable
define dso_local noundef zeroext i1 @_ZNK4i18n12phonenumbers15PhoneNumberUtil20IsNumberMatchingDescERKNSt7__cxx1112basic_stringIcSt11char_traitsIcESaIcEEERKNS0_15PhoneNumberDescE(ptr noundef nonnull align 8 dereferenceable(64) %0, ptr noundef nonnull align 8 dereferenceable(32) %1, ptr noundef nonnull align 8 dereferenceable(72) %2) #4 align 2 {
  %4 = alloca i1, align 1
  %5 = alloca ptr, align 8
  %6 = alloca ptr, align 8
  %7 = alloca ptr, align 8
  %8 = alloca i32, align 4
  store ptr %0, ptr %5, align 8
  store ptr %1, ptr %6, align 8
  store ptr %2, ptr %7, align 8
  %9 = load ptr, ptr %5, align 8
  %10 = load ptr, ptr %6, align 8
  %11 = call noundef i64 @_ZNKSt7__cxx1112basic_stringIcSt11char_traitsIcESaIcEE6lengthEv(ptr noundef nonnull align 8 dereferenceable(32) %10) #3
  %12 = trunc i64 %11 to i32
  store i32 %12, ptr %8, align 4
  %13 = load ptr, ptr %7, align 8
  %14 = call noundef i32 @_ZNK4i18n12phonenumbers15PhoneNumberDesc20possible_length_sizeEv(ptr noundef nonnull align 8 dereferenceable(72) %13)
  %15 = icmp sgt i32 %14, 0
  br i1 %15, label %16, label %29

16:                                               ; preds = %3
  %17 = load ptr, ptr %7, align 8
  %18 = call noundef nonnull align 8 dereferenceable(16) ptr @_ZNK4i18n12phonenumbers15PhoneNumberDesc15possible_lengthEv(ptr noundef nonnull align 8 dereferenceable(72) %17)
  %19 = call noundef ptr @_ZNK6google8protobuf13RepeatedFieldIiE5beginEv(ptr noundef nonnull align 8 dereferenceable(16) %18)
  %20 = load ptr, ptr %7, align 8
  %21 = call noundef nonnull align 8 dereferenceable(16) ptr @_ZNK4i18n12phonenumbers15PhoneNumberDesc15possible_lengthEv(ptr noundef nonnull align 8 dereferenceable(72) %20)
  %22 = call noundef ptr @_ZNK6google8protobuf13RepeatedFieldIiE3endEv(ptr noundef nonnull align 8 dereferenceable(16) %21)
  %23 = call noundef ptr @_ZSt4findIPKiiET_S2_S2_RKT0_(ptr noundef %19, ptr noundef %22, ptr noundef nonnull align 4 dereferenceable(4) %8)
  %24 = load ptr, ptr %7, align 8
  %25 = call noundef nonnull align 8 dereferenceable(16) ptr @_ZNK4i18n12phonenumbers15PhoneNumberDesc15possible_lengthEv(ptr noundef nonnull align 8 dereferenceable(72) %24)
  %26 = call noundef ptr @_ZNK6google8protobuf13RepeatedFieldIiE3endEv(ptr noundef nonnull align 8 dereferenceable(16) %25)
  %27 = icmp eq ptr %23, %26
  br i1 %27, label %28, label %29

28:                                               ; preds = %16
  store i1 false, ptr %4, align 1
  br label %35

29:                                               ; preds = %16, %3
  %30 = getelementptr inbounds %"class.i18n::phonenumbers::PhoneNumberUtil", ptr %9, i32 0, i32 2
  %31 = call noundef nonnull align 8 dereferenceable(8) ptr @_ZNK5boost10scoped_ptrIN4i18n12phonenumbers10MatcherApiEEdeEv(ptr noundef nonnull align 8 dereferenceable(8) %30) #3
  %32 = load ptr, ptr %6, align 8
  %33 = load ptr, ptr %7, align 8
  %34 = call noundef zeroext i1 @_ZN4i18n12phonenumbers12_GLOBAL__N_17IsMatchERKNS0_10MatcherApiERKNSt7__cxx1112basic_stringIcSt11char_traitsIcESaIcEEERKNS0_15PhoneNumberDescE(ptr noundef nonnull align 8 dereferenceable(8) %31, ptr noundef nonnull align 8 dereferenceable(32) %32, ptr noundef nonnull align 8 dereferenceable(72) %33)
  store i1 %34, ptr %4, align 1
  br label %35

35:                                               ; preds = %29, %28
  %36 = load i1, ptr %4, align 1
  ret i1 %36
}