; Function Attrs: mustprogress uwtable
define dso_local noundef zeroext i1 @_ZNK4i18n12phonenumbers15PhoneNumberUtil20IsNumberMatchingDescERKNSt7__cxx1112basic_stringIcSt11char_traitsIcESaIcEEERKNS0_15PhoneNumberDescE(ptr nocapture noundef nonnull readonly align 8 dereferenceable(64) %0, ptr noundef nonnull align 8 dereferenceable(32) %1, ptr noundef nonnull align 8 dereferenceable(72) %2) local_unnamed_addr #4 align 2 {
  %4 = tail call noundef i64 @_ZNKSt7__cxx1112basic_stringIcSt11char_traitsIcESaIcEE6lengthEv(ptr noundef nonnull align 8 dereferenceable(32) %1) #26
  %5 = trunc i64 %4 to i32
  %6 = getelementptr inbounds i8, ptr %2, i64 24
  %7 = tail call noundef i32 @_ZNK6google8protobuf13RepeatedFieldIiE4sizeEv(ptr noundef nonnull align 8 dereferenceable(16) %6)
  %8 = icmp sgt i32 %7, 0
  br i1 %8, label %9, label %55

9:                                                ; preds = %3
  %10 = tail call noundef ptr @_ZNK6google8protobuf13RepeatedFieldIiE5beginEv(ptr noundef nonnull align 8 dereferenceable(16) %6)
  %11 = tail call noundef ptr @_ZNK6google8protobuf13RepeatedFieldIiE3endEv(ptr noundef nonnull align 8 dereferenceable(16) %6)
  %12 = ptrtoint ptr %11 to i64
  %13 = ptrtoint ptr %10 to i64
  %14 = sub i64 %12, %13
  %15 = ashr i64 %14, 4
  %16 = icmp sgt i64 %15, 0
  br i1 %16, label %.lr.ph.i.i.i, label %._crit_edge.i.i.i

.lr.ph.i.i.i:                                     ; preds = %9
  %17 = and i64 %14, -16
  %scevgep.i.i.i = getelementptr i8, ptr %10, i64 %17
  br label %18

18:                                               ; preds = %33, %.lr.ph.i.i.i
  %.047.i.i.i = phi i64 [ %15, %.lr.ph.i.i.i ], [ %35, %33 ]
  %.02946.i.i.i = phi ptr [ %10, %.lr.ph.i.i.i ], [ %34, %33 ]
  %19 = load i32, ptr %.02946.i.i.i, align 4
  %20 = icmp eq i32 %19, %5
  br i1 %20, label %_ZSt4findIPKiiET_S2_S2_RKT0_.exit, label %21

21:                                               ; preds = %18
  %22 = getelementptr inbounds i8, ptr %.02946.i.i.i, i64 4
  %23 = load i32, ptr %22, align 4
  %24 = icmp eq i32 %23, %5
  br i1 %24, label %_ZSt4findIPKiiET_S2_S2_RKT0_.exit.loopexit.split.loop.exit, label %25

25:                                               ; preds = %21
  %26 = getelementptr inbounds i8, ptr %.02946.i.i.i, i64 8
  %27 = load i32, ptr %26, align 4
  %28 = icmp eq i32 %27, %5
  br i1 %28, label %_ZSt4findIPKiiET_S2_S2_RKT0_.exit.loopexit.split.loop.exit24, label %29

29:                                               ; preds = %25
  %30 = getelementptr inbounds i8, ptr %.02946.i.i.i, i64 12
  %31 = load i32, ptr %30, align 4
  %32 = icmp eq i32 %31, %5
  br i1 %32, label %_ZSt4findIPKiiET_S2_S2_RKT0_.exit.loopexit.split.loop.exit26, label %33

33:                                               ; preds = %29
  %34 = getelementptr inbounds i8, ptr %.02946.i.i.i, i64 16
  %35 = add nsw i64 %.047.i.i.i, -1
  %36 = icmp sgt i64 %.047.i.i.i, 1
  br i1 %36, label %18, label %._crit_edge.loopexit.i.i.i, !llvm.loop !330

._crit_edge.loopexit.i.i.i:                       ; preds = %33
  %.pre54.i.i.i = ptrtoint ptr %scevgep.i.i.i to i64
  %.pre55.i.i.i = sub i64 %12, %.pre54.i.i.i
  br label %._crit_edge.i.i.i

._crit_edge.i.i.i:                                ; preds = %._crit_edge.loopexit.i.i.i, %9
  %.pre-phi56.i.i.i = phi i64 [ %.pre55.i.i.i, %._crit_edge.loopexit.i.i.i ], [ %14, %9 ]
  %.029.lcssa.i.i.i = phi ptr [ %scevgep.i.i.i, %._crit_edge.loopexit.i.i.i ], [ %10, %9 ]
  %37 = ashr exact i64 %.pre-phi56.i.i.i, 2
  switch i64 %37, label %49 [
    i64 3, label %38
    i64 2, label %._crit_edge._crit_edge.i.i.i
    i64 1, label %._crit_edge._crit_edge52.i.i.i
  ]

38:                                               ; preds = %._crit_edge.i.i.i
  %39 = load i32, ptr %.029.lcssa.i.i.i, align 4
  %40 = icmp eq i32 %39, %5
  br i1 %40, label %_ZSt4findIPKiiET_S2_S2_RKT0_.exit, label %41

41:                                               ; preds = %38
  %42 = getelementptr inbounds i8, ptr %.029.lcssa.i.i.i, i64 4
  br label %._crit_edge._crit_edge.i.i.i

._crit_edge._crit_edge.i.i.i:                     ; preds = %._crit_edge.i.i.i, %41
  %.1.i.i.i = phi ptr [ %42, %41 ], [ %.029.lcssa.i.i.i, %._crit_edge.i.i.i ]
  %43 = load i32, ptr %.1.i.i.i, align 4
  %44 = icmp eq i32 %43, %5
  br i1 %44, label %_ZSt4findIPKiiET_S2_S2_RKT0_.exit, label %45

45:                                               ; preds = %._crit_edge._crit_edge.i.i.i
  %46 = getelementptr inbounds i8, ptr %.1.i.i.i, i64 4
  br label %._crit_edge._crit_edge52.i.i.i

._crit_edge._crit_edge52.i.i.i:                   ; preds = %._crit_edge.i.i.i, %45
  %.2.i.i.i = phi ptr [ %46, %45 ], [ %.029.lcssa.i.i.i, %._crit_edge.i.i.i ]
  %47 = load i32, ptr %.2.i.i.i, align 4
  %48 = icmp eq i32 %47, %5
  br i1 %48, label %_ZSt4findIPKiiET_S2_S2_RKT0_.exit, label %49

49:                                               ; preds = %._crit_edge._crit_edge52.i.i.i, %._crit_edge.i.i.i
  br label %_ZSt4findIPKiiET_S2_S2_RKT0_.exit

_ZSt4findIPKiiET_S2_S2_RKT0_.exit.loopexit.split.loop.exit: ; preds = %21
  %50 = getelementptr inbounds i8, ptr %.02946.i.i.i, i64 4
  br label %_ZSt4findIPKiiET_S2_S2_RKT0_.exit

_ZSt4findIPKiiET_S2_S2_RKT0_.exit.loopexit.split.loop.exit24: ; preds = %25
  %51 = getelementptr inbounds i8, ptr %.02946.i.i.i, i64 8
  br label %_ZSt4findIPKiiET_S2_S2_RKT0_.exit

_ZSt4findIPKiiET_S2_S2_RKT0_.exit.loopexit.split.loop.exit26: ; preds = %29
  %52 = getelementptr inbounds i8, ptr %.02946.i.i.i, i64 12
  br label %_ZSt4findIPKiiET_S2_S2_RKT0_.exit

_ZSt4findIPKiiET_S2_S2_RKT0_.exit:                ; preds = %18, %_ZSt4findIPKiiET_S2_S2_RKT0_.exit.loopexit.split.loop.exit, %_ZSt4findIPKiiET_S2_S2_RKT0_.exit.loopexit.split.loop.exit24, %_ZSt4findIPKiiET_S2_S2_RKT0_.exit.loopexit.split.loop.exit26, %38, %._crit_edge._crit_edge.i.i.i, %._crit_edge._crit_edge52.i.i.i, %49
  %.028.i.i.i = phi ptr [ %11, %49 ], [ %.029.lcssa.i.i.i, %38 ], [ %.1.i.i.i, %._crit_edge._crit_edge.i.i.i ], [ %.2.i.i.i, %._crit_edge._crit_edge52.i.i.i ], [ %50, %_ZSt4findIPKiiET_S2_S2_RKT0_.exit.loopexit.split.loop.exit ], [ %51, %_ZSt4findIPKiiET_S2_S2_RKT0_.exit.loopexit.split.loop.exit24 ], [ %52, %_ZSt4findIPKiiET_S2_S2_RKT0_.exit.loopexit.split.loop.exit26 ], [ %.02946.i.i.i, %18 ]
  %53 = tail call noundef ptr @_ZNK6google8protobuf13RepeatedFieldIiE3endEv(ptr noundef nonnull align 8 dereferenceable(16) %6)
  %54 = icmp eq ptr %.028.i.i.i, %53
  br i1 %54, label %62, label %55

55:                                               ; preds = %_ZSt4findIPKiiET_S2_S2_RKT0_.exit, %3
  %56 = getelementptr inbounds i8, ptr %0, i64 16
  %57 = load ptr, ptr %56, align 8
  %58 = load ptr, ptr %57, align 8
  %59 = getelementptr inbounds i8, ptr %58, i64 16
  %60 = load ptr, ptr %59, align 8
  %61 = tail call noundef zeroext i1 %60(ptr noundef nonnull align 8 dereferenceable(8) %57, ptr noundef nonnull align 8 dereferenceable(32) %1, ptr noundef nonnull align 8 dereferenceable(72) %2, i1 noundef zeroext false)
  br label %62

62:                                               ; preds = %_ZSt4findIPKiiET_S2_S2_RKT0_.exit, %55
  %.0 = phi i1 [ %61, %55 ], [ false, %_ZSt4findIPKiiET_S2_S2_RKT0_.exit ]
  ret i1 %.0
}